; ModuleID = 'source-C-CXX/0/1565.c'
source_filename = "source-C-CXX/0/1565.c"
target datalayout = "e-m:e-p270:32:32-p271:32:32-p272:64:64-i64:64-f80:128-n8:16:32:64-S128"
target triple = "x86_64-pc-linux-gnu"

@x = dso_local local_unnamed_addr global i32 1, align 4
@.str = private unnamed_addr constant [3 x i8] c"%d\00", align 1
@m = dso_local local_unnamed_addr global i32 0, align 4
@.str.1 = private unnamed_addr constant [4 x i8] c"%d\0A\00", align 1

; Function Attrs: nofree nounwind sspstrong uwtable
define dso_local i32 @main() local_unnamed_addr #0 {
  %1 = alloca i32, align 4
  %2 = alloca i32, align 4
  %3 = bitcast i32* %1 to i8*
  call void @llvm.lifetime.start.p0i8(i64 4, i8* nonnull %3) #4
  %4 = bitcast i32* %2 to i8*
  call void @llvm.lifetime.start.p0i8(i64 4, i8* nonnull %4) #4
  %5 = call i32 (i8*, ...) @__isoc99_scanf(i8* getelementptr inbounds ([3 x i8], [3 x i8]* @.str, i64 0, i64 0), i32* nonnull %1)
  %6 = load i32, i32* %1, align 4, !tbaa !5
  %7 = icmp sgt i32 %6, 0
  br i1 %7, label %8, label %17

8:                                                ; preds = %0, %8
  %9 = phi i32 [ %14, %8 ], [ 0, %0 ]
  %10 = call i32 (i8*, ...) @__isoc99_scanf(i8* getelementptr inbounds ([3 x i8], [3 x i8]* @.str, i64 0, i64 0), i32* nonnull %2)
  %11 = load i32, i32* %2, align 4, !tbaa !5
  store i32 %11, i32* @m, align 4, !tbaa !5
  %12 = call i32 @num(i32 %11, i32 2)
  store i32 %12, i32* %2, align 4, !tbaa !5
  %13 = call i32 (i8*, ...) @printf(i8* nonnull dereferenceable(1) getelementptr inbounds ([4 x i8], [4 x i8]* @.str.1, i64 0, i64 0), i32 %12)
  store i32 1, i32* @x, align 4, !tbaa !5
  %14 = add nuw nsw i32 %9, 1
  %15 = load i32, i32* %1, align 4, !tbaa !5
  %16 = icmp slt i32 %14, %15
  br i1 %16, label %8, label %17, !llvm.loop !9

17:                                               ; preds = %8, %0
  call void @llvm.lifetime.end.p0i8(i64 4, i8* nonnull %4) #4
  call void @llvm.lifetime.end.p0i8(i64 4, i8* nonnull %3) #4
  ret i32 0
}

; Function Attrs: argmemonly mustprogress nofree nosync nounwind willreturn
declare void @llvm.lifetime.start.p0i8(i64 immarg, i8* nocapture) #1

; Function Attrs: nofree nounwind
declare noundef i32 @__isoc99_scanf(i8* nocapture noundef readonly, ...) local_unnamed_addr #2

; Function Attrs: nofree nosync nounwind sspstrong uwtable
define dso_local i32 @num(i32 %0, i32 %1) local_unnamed_addr #3 {
  %3 = icmp slt i32 %1, %0
  br i1 %3, label %6, label %26

4:                                                ; preds = %19
  %5 = icmp eq i32 %23, %0
  br i1 %5, label %26, label %6, !llvm.loop !11

6:                                                ; preds = %2, %4
  %7 = phi i32 [ %23, %4 ], [ %1, %2 ]
  %8 = srem i32 %0, %7
  %9 = sdiv i32 %0, %7
  %10 = icmp ne i32 %8, 0
  %11 = icmp slt i32 %9, %7
  %12 = or i1 %10, %11
  br i1 %12, label %19, label %13

13:                                               ; preds = %6
  %14 = tail call i32 @num(i32 %9, i32 %7)
  %15 = icmp eq i32 %14, 1
  br i1 %15, label %16, label %19

16:                                               ; preds = %13
  %17 = load i32, i32* @x, align 4, !tbaa !5
  %18 = add nsw i32 %17, 1
  store i32 %18, i32* @x, align 4, !tbaa !5
  br label %19

19:                                               ; preds = %13, %16, %6
  %20 = load i32, i32* @m, align 4, !tbaa !5
  %21 = add nsw i32 %20, -1
  %22 = icmp eq i32 %7, %21
  %23 = add i32 %7, 1
  br i1 %22, label %24, label %4

24:                                               ; preds = %19
  %25 = load i32, i32* @x, align 4, !tbaa !5
  br label %26

26:                                               ; preds = %4, %2, %24
  %27 = phi i32 [ %25, %24 ], [ 1, %2 ], [ 1, %4 ]
  ret i32 %27
}

; Function Attrs: nofree nounwind
declare noundef i32 @printf(i8* nocapture noundef readonly, ...) local_unnamed_addr #2

; Function Attrs: argmemonly mustprogress nofree nosync nounwind willreturn
declare void @llvm.lifetime.end.p0i8(i64 immarg, i8* nocapture) #1


!llvm.module.flags = !{!0, !1, !2, !3}
!llvm.ident = !{!4}

!0 = !{i32 1, !"wchar_size", i32 4}
!1 = !{i32 7, !"PIC Level", i32 2}
!2 = !{i32 7, !"PIE Level", i32 2}
!3 = !{i32 7, !"uwtable", i32 1}
!4 = !{!"clang version 13.0.0"}
!5 = !{!6, !6, i64 0}
!6 = !{!"int", !7, i64 0}
!7 = !{!"omnipotent char", !8, i64 0}
!8 = !{!"Simple C/C++ TBAA"}
!9 = distinct !{!9, !10}
!10 = !{!"llvm.loop.mustprogress"}
!11 = distinct !{!11, !10}
